target datalayout = "e-m:e-p270:32:32-p271:32:32-p272:64:64-i64:64-i128:128-f80:128-n8:16:32:64-S128"
target triple = "x86_64-pc-linux-gnu"

%struct.Ivy_Dec_t_ = type { i32 }
%struct.Vec_Int_t_ = type { i32, i32, ptr }
%union.anon.0 = type { %struct.Ivy_Dec_t_ }

@.str.1 = private unnamed_addr constant [9 x i8] c"Const1%s\00", align 1
@.str.2 = private unnamed_addr constant [2 x i8] c"'\00", align 1
@.str.3 = private unnamed_addr constant [1 x i8] zeroinitializer, align 1
@.str.4 = private unnamed_addr constant [5 x i8] c"%c%s\00", align 1
@.str.5 = private unnamed_addr constant [3 x i8] c"%s\00", align 1
@.str.6 = private unnamed_addr constant [5 x i8] c"AND(\00", align 1
@.str.7 = private unnamed_addr constant [2 x i8] c",\00", align 1
@.str.8 = private unnamed_addr constant [4 x i8] c")%s\00", align 1
@.str.9 = private unnamed_addr constant [6 x i8] c"EXOR(\00", align 1
@.str.10 = private unnamed_addr constant [5 x i8] c"MUX(\00", align 1
@.str.11 = private unnamed_addr constant [5 x i8] c"MAJ(\00", align 1
@.str.12 = private unnamed_addr constant [2 x i8] c")\00", align 1

; Function Attrs: nounwind uwtable
define internal i32 @Ivy_DecGetVar(ptr noundef %0, i32 noundef %1) #0 {
  %3 = alloca i32, align 4
  %4 = alloca ptr, align 8
  %5 = alloca i32, align 4
  store ptr %0, ptr %4, align 8
  store i32 %1, ptr %5, align 4
  %6 = load i32, ptr %5, align 4
  switch i32 %6, label %36 [
    i32 0, label %7
    i32 1, label %12
    i32 2, label %17
    i32 3, label %22
    i32 4, label %27
    i32 5, label %32
  ]

7:                                                ; preds = %2
  %8 = load ptr, ptr %4, align 8
  %9 = load i32, ptr %8, align 4
  %10 = lshr i32 %9, 8
  %11 = and i32 %10, 15
  store i32 %11, ptr %3, align 4
  br label %37

12:                                               ; preds = %2
  %13 = load ptr, ptr %4, align 8
  %14 = load i32, ptr %13, align 4
  %15 = lshr i32 %14, 12
  %16 = and i32 %15, 15
  store i32 %16, ptr %3, align 4
  br label %37

17:                                               ; preds = %2
  %18 = load ptr, ptr %4, align 8
  %19 = load i32, ptr %18, align 4
  %20 = lshr i32 %19, 16
  %21 = and i32 %20, 15
  store i32 %21, ptr %3, align 4
  br label %37

22:                                               ; preds = %2
  %23 = load ptr, ptr %4, align 8
  %24 = load i32, ptr %23, align 4
  %25 = lshr i32 %24, 20
  %26 = and i32 %25, 15
  store i32 %26, ptr %3, align 4
  br label %37

27:                                               ; preds = %2
  %28 = load ptr, ptr %4, align 8
  %29 = load i32, ptr %28, align 4
  %30 = lshr i32 %29, 24
  %31 = and i32 %30, 15
  store i32 %31, ptr %3, align 4
  br label %37

32:                                               ; preds = %2
  %33 = load ptr, ptr %4, align 8
  %34 = load i32, ptr %33, align 4
  %35 = lshr i32 %34, 28
  store i32 %35, ptr %3, align 4
  br label %37

36:                                               ; preds = %2
  store i32 -1, ptr %3, align 4
  br label %37

37:                                               ; preds = %36, %32, %27, %22, %17, %12, %7
  %38 = load i32, ptr %3, align 4
  ret i32 %38
}

; Function Attrs: nounwind uwtable
define internal i32 @Ivy_IntToDec(i32 noundef %0) #0 {
  %2 = alloca %struct.Ivy_Dec_t_, align 4
  %3 = alloca i32, align 4
  %4 = alloca %union.anon.0, align 4
  store i32 %0, ptr %3, align 4
  %5 = load i32, ptr %3, align 4
  store i32 %5, ptr %4, align 4
  call void @llvm.memcpy.p0.p0.i64(ptr align 4 %2, ptr align 4 %4, i64 4, i1 false)
  %6 = getelementptr inbounds %struct.Ivy_Dec_t_, ptr %2, i32 0, i32 0
  %7 = load i32, ptr %6, align 4
  ret i32 %7
}

; Function Attrs: nounwind uwtable
define internal i32 @Vec_IntEntry(ptr noundef %0, i32 noundef %1) #0 {
  %3 = alloca ptr, align 8
  %4 = alloca i32, align 4
  store ptr %0, ptr %3, align 8
  store i32 %1, ptr %4, align 4
  %5 = load ptr, ptr %3, align 8
  %6 = getelementptr inbounds %struct.Vec_Int_t_, ptr %5, i32 0, i32 2
  %7 = load ptr, ptr %6, align 8
  %8 = load i32, ptr %4, align 4
  %9 = sext i32 %8 to i64
  %10 = getelementptr inbounds i32, ptr %7, i64 %9
  %11 = load i32, ptr %10, align 4
  ret i32 %11
}

; Function Attrs: nounwind uwtable
define void @Ivy_TruthDsdPrint_rec(ptr noundef %0, i32 noundef %1, ptr noundef %2) #0 {
  %4 = alloca ptr, align 8
  %5 = alloca i32, align 4
  %6 = alloca ptr, align 8
  %7 = alloca i32, align 4
  %8 = alloca i32, align 4
  %9 = alloca %struct.Ivy_Dec_t_, align 4
  %10 = alloca i32, align 4
  %11 = alloca i32, align 4
  %12 = alloca i32, align 4
  store ptr %0, ptr %4, align 8
  store i32 %1, ptr %5, align 4
  store ptr %2, ptr %6, align 8
  %13 = load ptr, ptr %6, align 8
  %14 = load i32, ptr %5, align 4
  %15 = call i32 @Vec_IntEntry(ptr noundef %13, i32 noundef %14)
  %16 = call i32 @Ivy_IntToDec(i32 noundef %15)
  %17 = getelementptr inbounds %struct.Ivy_Dec_t_, ptr %9, i32 0, i32 0
  store i32 %16, ptr %17, align 4
  %18 = load i32, ptr %9, align 4
  %19 = and i32 %18, 15
  %20 = icmp eq i32 %19, 1
  br i1 %20, label %21, label %29

21:                                               ; preds = %3
  %22 = load ptr, ptr %4, align 8
  %23 = load i32, ptr %9, align 4
  %24 = lshr i32 %23, 4
  %25 = and i32 %24, 1
  %26 = icmp ne i32 %25, 0
  %27 = select i1 %26, ptr @.str.2, ptr @.str.3
  %28 = call i32 (ptr, ptr, ...) @fprintf(ptr noundef %22, ptr noundef @.str.1, ptr noundef %27) #6
  br label %209

29:                                               ; preds = %3
  %30 = load i32, ptr %9, align 4
  %31 = and i32 %30, 15
  %32 = icmp eq i32 %31, 0
  br i1 %32, label %33, label %43

33:                                               ; preds = %29
  %34 = load ptr, ptr %4, align 8
  %35 = load i32, ptr %5, align 4
  %36 = add nsw i32 97, %35
  %37 = load i32, ptr %9, align 4
  %38 = lshr i32 %37, 4
  %39 = and i32 %38, 1
  %40 = icmp ne i32 %39, 0
  %41 = select i1 %40, ptr @.str.2, ptr @.str.3
  %42 = call i32 (ptr, ptr, ...) @fprintf(ptr noundef %34, ptr noundef @.str.4, i32 noundef %36, ptr noundef %41) #6
  br label %208

43:                                               ; preds = %29
  %44 = load i32, ptr %9, align 4
  %45 = and i32 %44, 15
  %46 = icmp eq i32 %45, 2
  br i1 %46, label %47, label %61

47:                                               ; preds = %43
  %48 = load ptr, ptr %4, align 8
  %49 = load i32, ptr %9, align 4
  %50 = lshr i32 %49, 8
  %51 = and i32 %50, 15
  %52 = ashr i32 %51, 1
  %53 = load ptr, ptr %6, align 8
  call void @Ivy_TruthDsdPrint_rec(ptr noundef %48, i32 noundef %52, ptr noundef %53)
  %54 = load ptr, ptr %4, align 8
  %55 = load i32, ptr %9, align 4
  %56 = lshr i32 %55, 4
  %57 = and i32 %56, 1
  %58 = icmp ne i32 %57, 0
  %59 = select i1 %58, ptr @.str.2, ptr @.str.3
  %60 = call i32 (ptr, ptr, ...) @fprintf(ptr noundef %54, ptr noundef @.str.5, ptr noundef %59) #6
  br label %207

61:                                               ; preds = %43
  %62 = load i32, ptr %9, align 4
  %63 = and i32 %62, 15
  %64 = icmp eq i32 %63, 3
  br i1 %64, label %65, label %108

65:                                               ; preds = %61
  %66 = load ptr, ptr %4, align 8
  %67 = call i32 (ptr, ptr, ...) @fprintf(ptr noundef %66, ptr noundef @.str.6) #6
  store i32 0, ptr %8, align 4
  br label %68

68:                                               ; preds = %97, %65
  %69 = load i32, ptr %8, align 4
  %70 = load i32, ptr %9, align 4
  %71 = lshr i32 %70, 5
  %72 = and i32 %71, 7
  %73 = icmp slt i32 %69, %72
  br i1 %73, label %74, label %100

74:                                               ; preds = %68
  %75 = load i32, ptr %8, align 4
  %76 = call i32 @Ivy_DecGetVar(ptr noundef %9, i32 noundef %75)
  store i32 %76, ptr %7, align 4
  %77 = load ptr, ptr %4, align 8
  %78 = load i32, ptr %7, align 4
  %79 = ashr i32 %78, 1
  %80 = load ptr, ptr %6, align 8
  call void @Ivy_TruthDsdPrint_rec(ptr noundef %77, i32 noundef %79, ptr noundef %80)
  %81 = load ptr, ptr %4, align 8
  %82 = load i32, ptr %7, align 4
  %83 = and i32 %82, 1
  %84 = icmp ne i32 %83, 0
  %85 = select i1 %84, ptr @.str.2, ptr @.str.3
  %86 = call i32 (ptr, ptr, ...) @fprintf(ptr noundef %81, ptr noundef @.str.5, ptr noundef %85) #6
  %87 = load i32, ptr %8, align 4
  %88 = load i32, ptr %9, align 4
  %89 = lshr i32 %88, 5
  %90 = and i32 %89, 7
  %91 = sub nsw i32 %90, 1
  %92 = icmp ne i32 %87, %91
  br i1 %92, label %93, label %96

93:                                               ; preds = %74
  %94 = load ptr, ptr %4, align 8
  %95 = call i32 (ptr, ptr, ...) @fprintf(ptr noundef %94, ptr noundef @.str.7) #6
  br label %96

96:                                               ; preds = %93, %74
  br label %97

97:                                               ; preds = %96
  %98 = load i32, ptr %8, align 4
  %99 = add nsw i32 %98, 1
  store i32 %99, ptr %8, align 4
  br label %68, !llvm.loop !10

100:                                              ; preds = %68
  %101 = load ptr, ptr %4, align 8
  %102 = load i32, ptr %9, align 4
  %103 = lshr i32 %102, 4
  %104 = and i32 %103, 1
  %105 = icmp ne i32 %104, 0
  %106 = select i1 %105, ptr @.str.2, ptr @.str.3
  %107 = call i32 (ptr, ptr, ...) @fprintf(ptr noundef %101, ptr noundef @.str.8, ptr noundef %106) #6
  br label %206

108:                                              ; preds = %61
  %109 = load i32, ptr %9, align 4
  %110 = and i32 %109, 15
  %111 = icmp eq i32 %110, 4
  br i1 %111, label %112, label %149

112:                                              ; preds = %108
  %113 = load ptr, ptr %4, align 8
  %114 = call i32 (ptr, ptr, ...) @fprintf(ptr noundef %113, ptr noundef @.str.9) #6
  store i32 0, ptr %8, align 4
  br label %115

115:                                              ; preds = %138, %112
  %116 = load i32, ptr %8, align 4
  %117 = load i32, ptr %9, align 4
  %118 = lshr i32 %117, 5
  %119 = and i32 %118, 7
  %120 = icmp slt i32 %116, %119
  br i1 %120, label %121, label %141

121:                                              ; preds = %115
  %122 = load i32, ptr %8, align 4
  %123 = call i32 @Ivy_DecGetVar(ptr noundef %9, i32 noundef %122)
  store i32 %123, ptr %7, align 4
  %124 = load ptr, ptr %4, align 8
  %125 = load i32, ptr %7, align 4
  %126 = ashr i32 %125, 1
  %127 = load ptr, ptr %6, align 8
  call void @Ivy_TruthDsdPrint_rec(ptr noundef %124, i32 noundef %126, ptr noundef %127)
  %128 = load i32, ptr %8, align 4
  %129 = load i32, ptr %9, align 4
  %130 = lshr i32 %129, 5
  %131 = and i32 %130, 7
  %132 = sub nsw i32 %131, 1
  %133 = icmp ne i32 %128, %132
  br i1 %133, label %134, label %137

134:                                              ; preds = %121
  %135 = load ptr, ptr %4, align 8
  %136 = call i32 (ptr, ptr, ...) @fprintf(ptr noundef %135, ptr noundef @.str.7) #6
  br label %137

137:                                              ; preds = %134, %121
  br label %138

138:                                              ; preds = %137
  %139 = load i32, ptr %8, align 4
  %140 = add nsw i32 %139, 1
  store i32 %140, ptr %8, align 4
  br label %115, !llvm.loop !11

141:                                              ; preds = %115
  %142 = load ptr, ptr %4, align 8
  %143 = load i32, ptr %9, align 4
  %144 = lshr i32 %143, 4
  %145 = and i32 %144, 1
  %146 = icmp ne i32 %145, 0
  %147 = select i1 %146, ptr @.str.2, ptr @.str.3
  %148 = call i32 (ptr, ptr, ...) @fprintf(ptr noundef %142, ptr noundef @.str.8, ptr noundef %147) #6
  br label %205

149:                                              ; preds = %108
  %150 = load i32, ptr %9, align 4
  %151 = and i32 %150, 15
  %152 = icmp eq i32 %151, 5
  br i1 %152, label %157, label %153

153:                                              ; preds = %149
  %154 = load i32, ptr %9, align 4
  %155 = and i32 %154, 15
  %156 = icmp eq i32 %155, 6
  br i1 %156, label %157, label %203

157:                                              ; preds = %153, %149
  %158 = call i32 @Ivy_DecGetVar(ptr noundef %9, i32 noundef 0)
  store i32 %158, ptr %10, align 4
  %159 = call i32 @Ivy_DecGetVar(ptr noundef %9, i32 noundef 1)
  store i32 %159, ptr %11, align 4
  %160 = call i32 @Ivy_DecGetVar(ptr noundef %9, i32 noundef 2)
  store i32 %160, ptr %12, align 4
  %161 = load ptr, ptr %4, align 8
  %162 = load i32, ptr %9, align 4
  %163 = and i32 %162, 15
  %164 = icmp eq i32 %163, 5
  %165 = select i1 %164, ptr @.str.10, ptr @.str.11
  %166 = call i32 (ptr, ptr, ...) @fprintf(ptr noundef %161, ptr noundef @.str.5, ptr noundef %165) #6
  %167 = load ptr, ptr %4, align 8
  %168 = load i32, ptr %10, align 4
  %169 = ashr i32 %168, 1
  %170 = load ptr, ptr %6, align 8
  call void @Ivy_TruthDsdPrint_rec(ptr noundef %167, i32 noundef %169, ptr noundef %170)
  %171 = load ptr, ptr %4, align 8
  %172 = load i32, ptr %10, align 4
  %173 = and i32 %172, 1
  %174 = icmp ne i32 %173, 0
  %175 = select i1 %174, ptr @.str.2, ptr @.str.3
  %176 = call i32 (ptr, ptr, ...) @fprintf(ptr noundef %171, ptr noundef @.str.5, ptr noundef %175) #6
  %177 = load ptr, ptr %4, align 8
  %178 = call i32 (ptr, ptr, ...) @fprintf(ptr noundef %177, ptr noundef @.str.7) #6
  %179 = load ptr, ptr %4, align 8
  %180 = load i32, ptr %11, align 4
  %181 = ashr i32 %180, 1
  %182 = load ptr, ptr %6, align 8
  call void @Ivy_TruthDsdPrint_rec(ptr noundef %179, i32 noundef %181, ptr noundef %182)
  %183 = load ptr, ptr %4, align 8
  %184 = load i32, ptr %11, align 4
  %185 = and i32 %184, 1
  %186 = icmp ne i32 %185, 0
  %187 = select i1 %186, ptr @.str.2, ptr @.str.3
  %188 = call i32 (ptr, ptr, ...) @fprintf(ptr noundef %183, ptr noundef @.str.5, ptr noundef %187) #6
  %189 = load ptr, ptr %4, align 8
  %190 = call i32 (ptr, ptr, ...) @fprintf(ptr noundef %189, ptr noundef @.str.7) #6
  %191 = load ptr, ptr %4, align 8
  %192 = load i32, ptr %12, align 4
  %193 = ashr i32 %192, 1
  %194 = load ptr, ptr %6, align 8
  call void @Ivy_TruthDsdPrint_rec(ptr noundef %191, i32 noundef %193, ptr noundef %194)
  %195 = load ptr, ptr %4, align 8
  %196 = load i32, ptr %12, align 4
  %197 = and i32 %196, 1
  %198 = icmp ne i32 %197, 0
  %199 = select i1 %198, ptr @.str.2, ptr @.str.3
  %200 = call i32 (ptr, ptr, ...) @fprintf(ptr noundef %195, ptr noundef @.str.5, ptr noundef %199) #6
  %201 = load ptr, ptr %4, align 8
  %202 = call i32 (ptr, ptr, ...) @fprintf(ptr noundef %201, ptr noundef @.str.12) #6
  br label %204

203:                                              ; preds = %153
  br label %204

204:                                              ; preds = %203, %157
  br label %205

205:                                              ; preds = %204, %141
  br label %206

206:                                              ; preds = %205, %100
  br label %207

207:                                              ; preds = %206, %47
  br label %208

208:                                              ; preds = %207, %33
  br label %209

209:                                              ; preds = %208, %21
  ret void
}