; Function Attrs: nofree nounwind uwtable
define void @Ivy_TruthDsdPrint_rec(ptr noundef %0, i32 noundef %1, ptr noundef %2) local_unnamed_addr #3 {
  %4 = getelementptr i8, ptr %2, i64 8
  %.val = load ptr, ptr %4, align 8
  %5 = sext i32 %1 to i64
  %6 = getelementptr inbounds i32, ptr %.val, i64 %5
  %7 = load i32, ptr %6, align 4
  %8 = and i32 %7, 15
  switch i32 %8, label %common.ret95 [
    i32 1, label %9
    i32 0, label %13
    i32 2, label %18
    i32 3, label %23
    i32 4, label %55
    i32 5, label %85
    i32 6, label %85
  ]

9:                                                ; preds = %3
  %10 = and i32 %7, 16
  %.not66 = icmp eq i32 %10, 0
  %11 = select i1 %.not66, ptr @.str.3, ptr @.str.2
  %12 = tail call i32 (ptr, ptr, ...) @fprintf(ptr noundef %0, ptr noundef nonnull @.str.1, ptr noundef nonnull %11) #11
  br label %common.ret95

13:                                               ; preds = %3
  %14 = add nsw i32 %1, 97
  %15 = and i32 %7, 16
  %.not65 = icmp eq i32 %15, 0
  %16 = select i1 %.not65, ptr @.str.3, ptr @.str.2
  %17 = tail call i32 (ptr, ptr, ...) @fprintf(ptr noundef %0, ptr noundef nonnull @.str.4, i32 noundef %14, ptr noundef nonnull %16) #11
  br label %common.ret95

common.ret95:                                     ; preds = %3, %13, %._crit_edge91, %._crit_edge, %9, %85, %18
  ret void

18:                                               ; preds = %3
  %19 = lshr i32 %7, 9
  %20 = and i32 %19, 7
  tail call void @Ivy_TruthDsdPrint_rec(ptr noundef %0, i32 noundef %20, ptr noundef nonnull %2)
  %21 = and i32 %7, 16
  %.not63 = icmp eq i32 %21, 0
  %22 = select i1 %.not63, ptr @.str.3, ptr @.str.2
  %fputs64 = tail call i32 @fputs(ptr nonnull %22, ptr %0)
  br label %common.ret95

23:                                               ; preds = %3
  %24 = tail call i64 @fwrite(ptr nonnull @.str.6, i64 4, i64 1, ptr %0)
  %25 = lshr i32 %7, 5
  %26 = and i32 %25, 7
  %.not93 = icmp eq i32 %26, 0
  br i1 %.not93, label %._crit_edge91, label %.lr.ph90

.lr.ph90:                                         ; preds = %23
  %27 = lshr i32 %7, 28
  %28 = lshr i32 %7, 24
  %29 = and i32 %28, 15
  %30 = lshr i32 %7, 20
  %31 = and i32 %30, 15
  %32 = lshr i32 %7, 16
  %33 = and i32 %32, 15
  %34 = lshr i32 %7, 12
  %35 = and i32 %34, 15
  %36 = lshr i32 %7, 8
  %37 = and i32 %36, 15
  %38 = add nsw i32 %26, -1
  br label %39

39:                                               ; preds = %.lr.ph90, %50
  %.088 = phi i32 [ 0, %.lr.ph90 ], [ %51, %50 ]
  switch i32 %.088, label %Ivy_DecGetVar.exit [
    i32 0, label %40
    i32 1, label %41
    i32 2, label %42
    i32 3, label %43
    i32 4, label %44
    i32 5, label %45
  ]

40:                                               ; preds = %39
  br label %Ivy_DecGetVar.exit

41:                                               ; preds = %39
  br label %Ivy_DecGetVar.exit

42:                                               ; preds = %39
  br label %Ivy_DecGetVar.exit

43:                                               ; preds = %39
  br label %Ivy_DecGetVar.exit

44:                                               ; preds = %39
  br label %Ivy_DecGetVar.exit

45:                                               ; preds = %39
  br label %Ivy_DecGetVar.exit

Ivy_DecGetVar.exit:                               ; preds = %39, %40, %41, %42, %43, %44, %45
  %.0.i = phi i32 [ %27, %45 ], [ %29, %44 ], [ %31, %43 ], [ %33, %42 ], [ %35, %41 ], [ %37, %40 ], [ -1, %39 ]
  %46 = ashr i32 %.0.i, 1
  tail call void @Ivy_TruthDsdPrint_rec(ptr noundef %0, i32 noundef %46, ptr noundef %2)
  %47 = and i32 %.0.i, 1
  %.not59 = icmp eq i32 %47, 0
  %48 = select i1 %.not59, ptr @.str.3, ptr @.str.2
  %fputs60 = tail call i32 @fputs(ptr nonnull %48, ptr %0)
  %.not61 = icmp eq i32 %.088, %38
  br i1 %.not61, label %50, label %49

49:                                               ; preds = %Ivy_DecGetVar.exit
  %fputc62 = tail call i32 @fputc(i32 44, ptr %0)
  br label %50

50:                                               ; preds = %Ivy_DecGetVar.exit, %49
  %51 = add nuw nsw i32 %.088, 1
  %exitcond94.not = icmp eq i32 %51, %26
  br i1 %exitcond94.not, label %._crit_edge91, label %39, !llvm.loop !15

._crit_edge91:                                    ; preds = %50, %23
  %52 = and i32 %7, 16
  %.not58 = icmp eq i32 %52, 0
  %53 = select i1 %.not58, ptr @.str.3, ptr @.str.2
  %54 = tail call i32 (ptr, ptr, ...) @fprintf(ptr noundef %0, ptr noundef nonnull @.str.8, ptr noundef nonnull %53) #11
  br label %common.ret95

55:                                               ; preds = %3
  %56 = tail call i64 @fwrite(ptr nonnull @.str.9, i64 5, i64 1, ptr %0)
  %57 = lshr i32 %7, 5
  %58 = and i32 %57, 7
  %.not92 = icmp eq i32 %58, 0
  br i1 %.not92, label %._crit_edge, label %.lr.ph

.lr.ph:                                           ; preds = %55
  %59 = lshr i32 %7, 28
  %60 = lshr i32 %7, 24
  %61 = and i32 %60, 15
  %62 = lshr i32 %7, 20
  %63 = and i32 %62, 15
  %64 = lshr i32 %7, 16
  %65 = and i32 %64, 15
  %66 = lshr i32 %7, 12
  %67 = and i32 %66, 15
  %68 = lshr i32 %7, 8
  %69 = and i32 %68, 15
  %70 = add nsw i32 %58, -1
  br label %71

71:                                               ; preds = %.lr.ph, %80
  %.187 = phi i32 [ 0, %.lr.ph ], [ %81, %80 ]
  switch i32 %.187, label %Ivy_DecGetVar.exit73 [
    i32 0, label %72
    i32 1, label %73
    i32 2, label %74
    i32 3, label %75
    i32 4, label %76
    i32 5, label %77
  ]

72:                                               ; preds = %71
  br label %Ivy_DecGetVar.exit73

73:                                               ; preds = %71
  br label %Ivy_DecGetVar.exit73

74:                                               ; preds = %71
  br label %Ivy_DecGetVar.exit73

75:                                               ; preds = %71
  br label %Ivy_DecGetVar.exit73

76:                                               ; preds = %71
  br label %Ivy_DecGetVar.exit73

77:                                               ; preds = %71
  br label %Ivy_DecGetVar.exit73

Ivy_DecGetVar.exit73:                             ; preds = %71, %72, %73, %74, %75, %76, %77
  %.0.i72 = phi i32 [ %59, %77 ], [ %61, %76 ], [ %63, %75 ], [ %65, %74 ], [ %67, %73 ], [ %69, %72 ], [ -1, %71 ]
  %78 = ashr i32 %.0.i72, 1
  tail call void @Ivy_TruthDsdPrint_rec(ptr noundef %0, i32 noundef %78, ptr noundef %2)
  %.not56 = icmp eq i32 %.187, %70
  br i1 %.not56, label %80, label %79

79:                                               ; preds = %Ivy_DecGetVar.exit73
  %fputc57 = tail call i32 @fputc(i32 44, ptr %0)
  br label %80

80:                                               ; preds = %Ivy_DecGetVar.exit73, %79
  %81 = add nuw nsw i32 %.187, 1
  %exitcond.not = icmp eq i32 %81, %58
  br i1 %exitcond.not, label %._crit_edge, label %71, !llvm.loop !16

._crit_edge:                                      ; preds = %80, %55
  %82 = and i32 %7, 16
  %.not55 = icmp eq i32 %82, 0
  %83 = select i1 %.not55, ptr @.str.3, ptr @.str.2
  %84 = tail call i32 (ptr, ptr, ...) @fprintf(ptr noundef %0, ptr noundef nonnull @.str.8, ptr noundef nonnull %83) #11
  br label %common.ret95

85:                                               ; preds = %3, %3
  %86 = icmp eq i32 %8, 5
  %87 = select i1 %86, ptr @.str.10, ptr @.str.11
  %88 = tail call i64 @fwrite(ptr nonnull %87, i64 4, i64 1, ptr %0)
  %89 = lshr i32 %7, 9
  %90 = and i32 %89, 7
  tail call void @Ivy_TruthDsdPrint_rec(ptr noundef %0, i32 noundef %90, ptr noundef nonnull %2)
  %91 = and i32 %7, 256
  %.not = icmp eq i32 %91, 0
  %92 = select i1 %.not, ptr @.str.3, ptr @.str.2
  %fputs = tail call i32 @fputs(ptr nonnull %92, ptr %0)
  %fputc = tail call i32 @fputc(i32 44, ptr %0)
  %93 = lshr i32 %7, 13
  %94 = and i32 %93, 7
  tail call void @Ivy_TruthDsdPrint_rec(ptr noundef %0, i32 noundef %94, ptr noundef nonnull %2)
  %95 = and i32 %7, 4096
  %.not49 = icmp eq i32 %95, 0
  %96 = select i1 %.not49, ptr @.str.3, ptr @.str.2
  %fputs50 = tail call i32 @fputs(ptr nonnull %96, ptr %0)
  %fputc51 = tail call i32 @fputc(i32 44, ptr %0)
  %97 = lshr i32 %7, 17
  %98 = and i32 %97, 7
  tail call void @Ivy_TruthDsdPrint_rec(ptr noundef %0, i32 noundef %98, ptr noundef nonnull %2)
  %99 = and i32 %7, 65536
  %.not52 = icmp eq i32 %99, 0
  %100 = select i1 %.not52, ptr @.str.3, ptr @.str.2
  %fputs53 = tail call i32 @fputs(ptr nonnull %100, ptr %0)
  %fputc54 = tail call i32 @fputc(i32 41, ptr %0)
  br label %common.ret95
}